; Function Attrs: mustprogress nounwind uwtable
define void @_Z16DeleteUniformMapP11TUniformMap(ptr noundef %0) local_unnamed_addr #0 {
  %2 = icmp eq ptr %0, null
  br i1 %2, label %7, label %3

3:                                                ; preds = %1
  %4 = load ptr, ptr %0, align 8
  %5 = getelementptr inbounds i8, ptr %4, i64 8
  %6 = load ptr, ptr %5, align 8
  tail call void %6(ptr noundef nonnull align 8 dereferenceable(112) %0) #9
  br label %7

7:                                                ; preds = %3, %1
  ret void
}